target datalayout = "e-m:e-p270:32:32-p271:32:32-p272:64:64-i64:64-i128:128-f80:128-n8:16:32:64-S128"
target triple = "x86_64-pc-linux-gnu"

%struct.slurm_conf_t = type { i64, ptr, i16, ptr, ptr, ptr, ptr, ptr, i16, ptr, ptr, ptr, ptr, ptr, ptr, ptr, i16, ptr, ptr, ptr, ptr, i16, ptr, ptr, ptr, i64, ptr, ptr, ptr, ptr, i16, ptr, ptr, i16, i32, ptr, i32, ptr, i32, i32, ptr, ptr, i64, i64, ptr, i16, i16, ptr, i32, i32, ptr, i32, ptr, i32, i16, i16, i16, ptr, i16, i16, ptr, ptr, i32, i16, i16, ptr, i32, i16, ptr, ptr, ptr, ptr, i16, ptr, ptr, ptr, ptr, i32, ptr, ptr, ptr, ptr, i16, i16, ptr, i32, i32, i32, i16, i16, ptr, ptr, i16, ptr, ptr, i32, i32, i32, i32, i32, i64, i32, i32, i16, ptr, ptr, i32, ptr, ptr, ptr, i16, i32, ptr, ptr, i16, ptr, ptr, i32, i16, ptr, ptr, ptr, ptr, i32, i32, i16, i16, i32, ptr, i16, ptr, i32, i32, i32, i32, i32, i32, ptr, i16, ptr, ptr, i32, i16, ptr, i32, i16, i16, ptr, ptr, ptr, i16, ptr, ptr, ptr, ptr, i16, i16, ptr, i16, ptr, i16, ptr, i16, ptr, i16, ptr, ptr, ptr, ptr, i16, ptr, ptr, ptr, i32, ptr, i32, ptr, ptr, i16, ptr, ptr, i32, i16, ptr, ptr, i16, i16, ptr, i16, ptr, ptr, ptr, i32, ptr, i16, i16, ptr, ptr, ptr, ptr, ptr, ptr, ptr, ptr, i16, i32, i16, ptr, ptr, ptr, ptr, i32, ptr, ptr, ptr, i16, ptr, ptr, ptr, i16, ptr, i16, ptr, i16, i16, ptr }
%struct.assoc_mgr_lock_t = type { i32, i32, i32, i32, i32, i32, i32 }
%struct.slurmctld_resv = type { i16, ptr, i32, ptr, ptr, i32, ptr, ptr, i32, ptr, i32, ptr, i32, i64, i64, ptr, i64, ptr, ptr, i32, i32, ptr, ptr, i32, ptr, ptr, i32, ptr, ptr, ptr, i32, i32, i64, i64, i64, i64, ptr, ptr, ptr, i32, ptr }
%struct.slurmdb_assoc_rec = type { ptr, ptr, ptr, ptr, ptr, ptr, ptr, i32, i32, i32, i32, i32, ptr, ptr, ptr, ptr, ptr, ptr, i32, i32, i16, ptr, ptr, i32, i32, i32, ptr, ptr, ptr, ptr, ptr, ptr, ptr, ptr, i32, i32, ptr, i32, ptr, i32, ptr, i32, i32, ptr, ptr, ptr }

@resv_list = dso_local global ptr null, align 8
@slurm_conf = external global %struct.slurm_conf_t, align 8
@acct_db_conn = external global ptr, align 8
@accounting_enforce = external global i16, align 2
@validate_resv_uid.sched_update = internal global i64 0, align 8
@validate_resv_uid.user_resv_delete = internal global i8 0, align 1
@__const.validate_resv_uid.locks = private unnamed_addr constant %struct.assoc_mgr_lock_t { i32 1, i32 0, i32 0, i32 0, i32 0, i32 0, i32 0 }, align 4
@.str.100 = private unnamed_addr constant [17 x i8] c"user_resv_delete\00", align 1

; Function Attrs: nounwind uwtable
define dso_local ptr @find_resv_name(ptr noundef %0) #0 {
  %2 = alloca ptr, align 8
  %3 = alloca ptr, align 8
  store ptr %0, ptr %2, align 8
  call void @llvm.lifetime.start.p0(i64 8, ptr %3) #10
  %4 = load ptr, ptr @resv_list, align 8
  %5 = load ptr, ptr %2, align 8
  %6 = call ptr @list_find_first(ptr noundef %4, ptr noundef @_find_resv_name, ptr noundef %5)
  store ptr %6, ptr %3, align 8
  %7 = load ptr, ptr %3, align 8
  call void @llvm.lifetime.end.p0(i64 8, ptr %3) #10
  ret ptr %7
}

; Function Attrs: nounwind uwtable
define dso_local zeroext i1 @validate_resv_uid(ptr noundef %0, i32 noundef %1) #0 {
  %3 = alloca i1, align 1
  %4 = alloca ptr, align 8
  %5 = alloca i32, align 4
  %6 = alloca %struct.slurmdb_assoc_rec, align 8
  %7 = alloca ptr, align 8
  %8 = alloca %struct.assoc_mgr_lock_t, align 4
  %9 = alloca i8, align 1
  %10 = alloca ptr, align 8
  %11 = alloca i32, align 4
  store ptr %0, ptr %4, align 8
  store i32 %1, ptr %5, align 4
  call void @llvm.lifetime.start.p0(i64 320, ptr %6) #10
  call void @llvm.lifetime.start.p0(i64 8, ptr %7) #10
  store ptr null, ptr %7, align 8
  call void @llvm.lifetime.start.p0(i64 28, ptr %8) #10
  call void @llvm.memcpy.p0.p0.i64(ptr align 4 %8, ptr align 4 @__const.validate_resv_uid.locks, i64 28, i1 false)
  call void @llvm.lifetime.start.p0(i64 1, ptr %9) #10
  store i8 0, ptr %9, align 1
  call void @llvm.lifetime.start.p0(i64 8, ptr %10) #10
  %12 = load ptr, ptr %4, align 8
  %13 = icmp ne ptr %12, null
  br i1 %13, label %15, label %14

14:                                               ; preds = %2
  store i1 false, ptr %3, align 1
  store i32 1, ptr %11, align 4
  br label %71

15:                                               ; preds = %2
  %16 = load i64, ptr @validate_resv_uid.sched_update, align 8
  %17 = load i64, ptr @slurm_conf, align 8
  %18 = icmp ne i64 %16, %17
  br i1 %18, label %19, label %27

19:                                               ; preds = %15
  %20 = load ptr, ptr getelementptr inbounds nuw (%struct.slurm_conf_t, ptr @slurm_conf, i32 0, i32 187), align 8
  %21 = call ptr @xstrcasestr(ptr noundef %20, ptr noundef @.str.100)
  %22 = icmp ne ptr %21, null
  br i1 %22, label %23, label %24

23:                                               ; preds = %19
  store i8 1, ptr @validate_resv_uid.user_resv_delete, align 1
  br label %25

24:                                               ; preds = %19
  store i8 0, ptr @validate_resv_uid.user_resv_delete, align 1
  br label %25

25:                                               ; preds = %24, %23
  %26 = load i64, ptr @slurm_conf, align 8
  store i64 %26, ptr @validate_resv_uid.sched_update, align 8
  br label %27

27:                                               ; preds = %25, %15
  %28 = load ptr, ptr %4, align 8
  %29 = call ptr @find_resv_name(ptr noundef %28)
  store ptr %29, ptr %10, align 8
  %30 = icmp ne ptr %29, null
  br i1 %30, label %32, label %31

31:                                               ; preds = %27
  store i1 false, ptr %3, align 1
  store i32 1, ptr %11, align 4
  br label %71

32:                                               ; preds = %27
  %33 = load i8, ptr @validate_resv_uid.user_resv_delete, align 1, !range !11, !noundef !12
  %34 = trunc i8 %33 to i1
  br i1 %34, label %42, label %35

35:                                               ; preds = %32
  %36 = load ptr, ptr %10, align 8
  %37 = getelementptr inbounds nuw %struct.slurmctld_resv, ptr %36, i32 0, i32 16
  %38 = load i64, ptr %37, align 8
  %39 = and i64 %38, 549755813888
  %40 = icmp ne i64 %39, 0
  br i1 %40, label %42, label %41

41:                                               ; preds = %35
  store i1 false, ptr %3, align 1
  store i32 1, ptr %11, align 4
  br label %71

42:                                               ; preds = %35, %32
  call void @llvm.memset.p0.i64(ptr align 8 %6, i8 0, i64 320, i1 false)
  %43 = load i32, ptr %5, align 4
  %44 = getelementptr inbounds nuw %struct.slurmdb_assoc_rec, ptr %6, i32 0, i32 42
  store i32 %43, ptr %44, align 4
  %45 = call ptr @list_create(ptr noundef null)
  store ptr %45, ptr %7, align 8
  call void @assoc_mgr_lock(ptr noundef %8)
  %46 = load ptr, ptr @acct_db_conn, align 8
  %47 = load i16, ptr @accounting_enforce, align 2
  %48 = zext i16 %47 to i32
  %49 = load ptr, ptr %7, align 8
  %50 = call i32 @assoc_mgr_get_user_assocs(ptr noundef %46, ptr noundef %6, i32 noundef %48, ptr noundef %49)
  %51 = icmp ne i32 %50, 0
  br i1 %51, label %52, label %53

52:                                               ; preds = %42
  br label %60

53:                                               ; preds = %42
  %54 = load ptr, ptr %10, align 8
  %55 = load ptr, ptr %7, align 8
  %56 = load i32, ptr %5, align 4
  %57 = call zeroext i1 @_validate_user_access(ptr noundef %54, ptr noundef %55, i32 noundef %56)
  br i1 %57, label %58, label %59

58:                                               ; preds = %53
  store i8 1, ptr %9, align 1
  br label %59

59:                                               ; preds = %58, %53
  br label %60

60:                                               ; preds = %59, %52
  br label %61

61:                                               ; preds = %60
  %62 = load ptr, ptr %7, align 8
  %63 = icmp ne ptr %62, null
  br i1 %63, label %64, label %66

64:                                               ; preds = %61
  %65 = load ptr, ptr %7, align 8
  call void @list_destroy(ptr noundef %65)
  br label %66

66:                                               ; preds = %64, %61
  store ptr null, ptr %7, align 8
  br label %67

67:                                               ; preds = %66
  br label %68

68:                                               ; preds = %67
  call void @assoc_mgr_unlock(ptr noundef %8)
  %69 = load i8, ptr %9, align 1, !range !11, !noundef !12
  %70 = trunc i8 %69 to i1
  store i1 %70, ptr %3, align 1
  store i32 1, ptr %11, align 4
  br label %71

71:                                               ; preds = %68, %41, %31, %14
  call void @llvm.lifetime.end.p0(i64 8, ptr %10) #10
  call void @llvm.lifetime.end.p0(i64 1, ptr %9) #10
  call void @llvm.lifetime.end.p0(i64 28, ptr %8) #10
  call void @llvm.lifetime.end.p0(i64 8, ptr %7) #10
  call void @llvm.lifetime.end.p0(i64 320, ptr %6) #10
  %72 = load i1, ptr %3, align 1
  ret i1 %72
}