; Function Attrs: nounwind uwtable
define dso_local noundef zeroext i1 @validate_resv_uid(ptr noundef %0, i32 noundef %1) local_unnamed_addr #0 {
  %3 = alloca %struct.slurmdb_assoc_rec, align 8
  %4 = alloca %struct.assoc_mgr_lock_t, align 4
  call void @llvm.lifetime.start.p0(i64 320, ptr nonnull %3) #19
  call void @llvm.lifetime.start.p0(i64 28, ptr nonnull %4) #19
  call void @llvm.memcpy.p0.p0.i64(ptr noundef nonnull align 4 dereferenceable(28) %4, ptr noundef nonnull align 4 dereferenceable(28) @__const.validate_resv_uid.locks, i64 28, i1 false)
  %.not = icmp eq ptr %0, null
  br i1 %.not, label %32, label %5

5:                                                ; preds = %2
  %6 = load i64, ptr @validate_resv_uid.sched_update, align 8
  %7 = load i64, ptr @slurm_conf, align 8
  %.not15 = icmp eq i64 %6, %7
  br i1 %.not15, label %12, label %8

8:                                                ; preds = %5
  %9 = load ptr, ptr getelementptr inbounds nuw (i8, ptr @slurm_conf, i64 1248), align 8
  %10 = tail call ptr @xstrcasestr(ptr noundef %9, ptr noundef nonnull @.str.100) #19
  %.not16 = icmp ne ptr %10, null
  store i1 %.not16, ptr @validate_resv_uid.user_resv_delete, align 1
  %11 = load i64, ptr @slurm_conf, align 8
  store i64 %11, ptr @validate_resv_uid.sched_update, align 8
  br label %12

12:                                               ; preds = %8, %5
  %13 = load ptr, ptr @resv_list, align 8
  %14 = tail call ptr @list_find_first(ptr noundef %13, ptr noundef nonnull @_find_resv_name, ptr noundef nonnull %0) #19
  %.not17 = icmp eq ptr %14, null
  br i1 %.not17, label %32, label %15

15:                                               ; preds = %12
  %.b18 = load i1, ptr @validate_resv_uid.user_resv_delete, align 1
  br i1 %.b18, label %20, label %16

16:                                               ; preds = %15
  %17 = getelementptr inbounds nuw i8, ptr %14, i64 128
  %18 = load i64, ptr %17, align 8
  %19 = and i64 %18, 549755813888
  %.not19 = icmp eq i64 %19, 0
  br i1 %.not19, label %32, label %20

20:                                               ; preds = %16, %15
  call void @llvm.memset.p0.i64(ptr noundef nonnull align 8 dereferenceable(320) %3, i8 0, i64 320, i1 false)
  %21 = getelementptr inbounds nuw i8, ptr %3, i64 292
  store i32 %1, ptr %21, align 4
  %22 = tail call ptr @list_create(ptr noundef null) #19
  call void @assoc_mgr_lock(ptr noundef nonnull %4) #19
  %23 = load ptr, ptr @acct_db_conn, align 8
  %24 = load i16, ptr @accounting_enforce, align 2
  %25 = zext i16 %24 to i32
  %26 = call i32 @assoc_mgr_get_user_assocs(ptr noundef %23, ptr noundef nonnull %3, i32 noundef %25, ptr noundef %22) #19
  %.not20 = icmp eq i32 %26, 0
  br i1 %.not20, label %27, label %29

27:                                               ; preds = %20
  %28 = call fastcc zeroext i1 @_validate_user_access(ptr noundef %14, ptr noundef %22, i32 noundef %1)
  br label %29

29:                                               ; preds = %27, %20
  %.011 = phi i1 [ false, %20 ], [ %28, %27 ]
  %.not21 = icmp eq ptr %22, null
  br i1 %.not21, label %31, label %30

30:                                               ; preds = %29
  call void @list_destroy(ptr noundef nonnull %22) #19
  br label %31

31:                                               ; preds = %30, %29
  call void @assoc_mgr_unlock(ptr noundef nonnull %4) #19
  br label %32

32:                                               ; preds = %16, %12, %2, %31
  %.0 = phi i1 [ %.011, %31 ], [ false, %2 ], [ false, %12 ], [ false, %16 ]
  call void @llvm.lifetime.end.p0(i64 28, ptr nonnull %4) #19
  call void @llvm.lifetime.end.p0(i64 320, ptr nonnull %3) #19
  ret i1 %.0
}